; Function Attrs: mustprogress nofree norecurse nosync nounwind willreturn memory(argmem: write) uwtable
define noundef ptr @jpeg_std_error(ptr noundef returned writeonly %0) local_unnamed_addr #0 {
  %2 = getelementptr inbounds i8, ptr %0, i64 40
  tail call void @llvm.memset.p0.i64(ptr noundef nonnull align 8 dereferenceable(168) %2, i8 0, i64 128, i1 false)
  store ptr @error_exit, ptr %0, align 8
  %3 = getelementptr inbounds i8, ptr %0, i64 8
  store ptr @emit_message, ptr %3, align 8
  %4 = getelementptr inbounds i8, ptr %0, i64 16
  store ptr @output_message, ptr %4, align 8
  %5 = getelementptr inbounds i8, ptr %0, i64 24
  store ptr @format_message, ptr %5, align 8
  %6 = getelementptr inbounds i8, ptr %0, i64 32
  store ptr @reset_error_mgr, ptr %6, align 8
  %7 = getelementptr inbounds i8, ptr %0, i64 136
  store ptr @jpeg_std_message_table, ptr %7, align 8
  %8 = getelementptr inbounds i8, ptr %0, i64 144
  store i32 129, ptr %8, align 8
  ret ptr %0
}